; Function Attrs: mustprogress uwtable
define hidden void @_ZNK6google8protobuf8internal15DynamicMapField19SetMapIteratorValueEPNS0_11MapIteratorE(ptr nonnull readnone align 8 captures(none) %0, ptr noundef %1) unnamed_addr #6 align 2 {
  %3 = load ptr, ptr %1, align 8, !tbaa !159
  %.sroa.04.0.copyload = load ptr, ptr %3, align 8, !tbaa !81
  %4 = icmp eq ptr %.sroa.04.0.copyload, null
  br i1 %4, label %13, label %5

5:                                                ; preds = %2
  %6 = getelementptr inbounds nuw i8, ptr %1, i64 16
  tail call void @_ZN6google8protobuf6MapKey8CopyFromERKS1_(ptr noundef nonnull align 8 dereferenceable(36) %6, ptr noundef nonnull align 8 dereferenceable(36) %.sroa.04.0.copyload)
  %7 = getelementptr inbounds nuw i8, ptr %1, i64 56
  %8 = getelementptr inbounds nuw i8, ptr %.sroa.04.0.copyload, i64 40
  %9 = getelementptr inbounds nuw i8, ptr %.sroa.04.0.copyload, i64 48
  %10 = load i32, ptr %9, align 8, !tbaa !88
  %11 = getelementptr inbounds nuw i8, ptr %1, i64 64
  store i32 %10, ptr %11, align 8, !tbaa !88
  %12 = load ptr, ptr %8, align 8, !tbaa !91
  store ptr %12, ptr %7, align 8, !tbaa !91
  br label %13

13:                                               ; preds = %2, %5
  ret void
}